target datalayout = "e-m:e-p270:32:32-p271:32:32-p272:64:64-i64:64-i128:128-f80:128-n8:16:32:64-S128"
target triple = "x86_64-unknown-linux-gnu"

%"class.icu_75::UObject" = type { ptr }
%"class.icu_75::SpoofImpl" = type <{ %"class.icu_75::UObject", %"class.icu_75::IcuCApiHelper", i32, ptr, ptr, ptr, i32, [4 x i8] }>
%"class.icu_75::IcuCApiHelper" = type { i32 }

; Function Attrs: mustprogress uwtable
define i32 @uspoof_getRestrictionLevel_75(ptr noundef %sc) #0 {
entry:
  %retval = alloca i32, align 4
  %sc.addr = alloca ptr, align 8
  %status = alloca i32, align 4
  %This = alloca ptr, align 8
  store ptr %sc, ptr %sc.addr, align 8
  store i32 0, ptr %status, align 4
  %0 = load ptr, ptr %sc.addr, align 8
  %call = call noundef ptr @_ZN6icu_759SpoofImpl12validateThisEPK13USpoofCheckerR10UErrorCode(ptr noundef %0, ptr noundef nonnull align 4 dereferenceable(4) %status)
  store ptr %call, ptr %This, align 8
  %1 = load ptr, ptr %This, align 8
  %cmp = icmp eq ptr %1, null
  br i1 %cmp, label %if.then, label %if.end

if.then:                                          ; preds = %entry
  store i32 1610612736, ptr %retval, align 4
  br label %return

if.end:                                           ; preds = %entry
  %2 = load ptr, ptr %This, align 8
  %fRestrictionLevel = getelementptr inbounds %"class.icu_75::SpoofImpl", ptr %2, i32 0, i32 6
  %3 = load i32, ptr %fRestrictionLevel, align 8
  store i32 %3, ptr %retval, align 4
  br label %return

return:                                           ; preds = %if.end, %if.then
  %4 = load i32, ptr %retval, align 4
  ret i32 %4
}