; Function Attrs: mustprogress uwtable
define i32 @uspoof_getRestrictionLevel_75(ptr noundef %sc) local_unnamed_addr #0 {
entry:
  %status = alloca i32, align 4
  store i32 0, ptr %status, align 4
  %call = call noundef ptr @_ZN6icu_759SpoofImpl12validateThisEPK13USpoofCheckerR10UErrorCode(ptr noundef %sc, ptr noundef nonnull align 4 dereferenceable(4) %status)
  %cmp = icmp eq ptr %call, null
  br i1 %cmp, label %return, label %if.end

if.end:                                           ; preds = %entry
  %fRestrictionLevel = getelementptr inbounds i8, ptr %call, i64 40
  %0 = load i32, ptr %fRestrictionLevel, align 8
  br label %return

return:                                           ; preds = %entry, %if.end
  %retval.0 = phi i32 [ %0, %if.end ], [ 1610612736, %entry ]
  ret i32 %retval.0
}